Certificate:
    Data:
        Version: 3 (0x2)
        Serial Number: 7 (0x7)
        Signature Algorithm: sha256WithRSAEncryption
        Issuer: C=SE, ST=Stockholm, L=Stockholm, O=KTH, OU=IK2206 Internet Security and Privacy, CN=ca-np.ik2206.kth.se/emailAddress=ctsi@kth.se
        Validity
            Not Before: Dec 12 19:08:12 2022 GMT
            Not After : Dec 12 19:08:12 2023 GMT
        Subject: C=SE, ST=Stockholm, L=Stockholm, O=KTH, CN=client-np.ik2206.kth.se/emailAddress=ctsi@kth.se
        Subject Public Key Info:
            Public Key Algorithm: rsaEncryption
                RSA Public-Key: (2048 bit)
                Modulus:
                    00:c0:21:bc:35:db:cb:70:b3:22:9e:db:96:e7:dd:
                    63:84:df:4d:2e:f7:03:c5:aa:bc:ba:39:d7:fe:83:
                    1b:e3:d1:9e:ab:cc:8a:f2:a5:f2:f4:f9:2b:80:9a:
                    45:a6:ed:50:be:00:d1:91:8b:e9:b8:65:57:5e:6e:
                    65:9e:3e:b0:39:43:0b:c7:e0:3e:6e:ac:19:a5:e4:
                    bb:af:87:b4:2d:e2:a6:d7:3b:78:2a:4c:0d:1b:35:
                    d0:b7:c9:87:4c:0e:4b:3d:69:76:4b:39:03:9c:b3:
                    fd:ae:58:b2:04:53:ed:55:e0:9f:06:6c:e5:c8:3e:
                    2e:46:61:4f:23:8b:42:e6:c4:0d:39:71:68:1d:98:
                    c9:0b:ba:a2:7b:28:ca:ea:d4:55:25:0c:c7:46:2a:
                    df:4a:d6:5d:e6:03:7f:da:fe:11:c8:15:a7:40:0a:
                    b3:95:71:e1:2f:62:1b:bb:7a:0a:fd:f5:4f:82:6c:
                    04:45:66:28:97:75:10:21:84:79:92:d2:c3:28:5e:
                    c9:48:0d:06:8c:b2:52:84:25:c0:2d:c3:ff:ec:0c:
                    e5:9b:37:1f:fe:f8:3a:8e:1e:1b:c2:67:98:58:fe:
                    52:c2:7a:58:0c:c0:ff:ef:4d:f7:b9:e7:5f:ab:d2:
                    d3:fb:5e:af:ff:69:8e:5c:5e:fe:30:73:d4:38:1e:
                    56:2b
                Exponent: 65537 (0x10001)
        X509v3 extensions:
            X509v3 Subject Key Identifier: 
                5A:B7:1D:B2:A1:22:9F:B4:3B:D3:80:15:30:29:AB:DC:79:37:91:C5
            X509v3 Authority Key Identifier: 
                keyid:32:A3:19:33:A5:6D:BB:62:3B:20:55:83:33:D5:3E:06:07:D9:3C:CB

            X509v3 Basic Constraints: 
                CA:FALSE
            X509v3 Key Usage: 
                Digital Signature, Key Encipherment
            X509v3 Subject Alternative Name: 
                DNS:example.com, DNS:www.example.com, DNS:mail.example.com, DNS:ftp.example.com
            Netscape Comment: 
                OpenSSL Generated Certificate
    Signature Algorithm: sha256WithRSAEncryption
         5a:c4:a6:d3:45:86:f9:85:0c:53:92:49:86:df:ec:d0:b0:26:
         2f:46:40:98:25:91:8f:a9:6f:7e:dc:10:95:0b:df:37:8c:b0:
         30:1c:a3:c0:17:90:b1:87:bc:05:27:b7:ee:ca:92:b1:1d:44:
         c9:d1:a8:1b:cd:d4:5b:4f:1d:86:e3:1f:a7:a3:6f:2e:d1:5c:
         30:80:68:84:d8:05:09:6e:c1:7a:a6:be:54:3b:a7:91:ca:36:
         fb:9f:c4:b7:d9:fc:e8:92:c8:e7:68:1c:03:64:54:71:73:27:
         bc:07:13:13:19:f9:23:60:fd:5d:90:c5:9f:77:1e:0b:97:76:
         1e:5b:37:a1:97:94:cd:2e:15:d7:47:4a:c3:a6:17:60:1a:80:
         be:a8:dc:22:74:37:c8:82:be:8e:d2:3b:7d:74:bf:4f:b3:f6:
         08:ee:2e:8b:a8:31:6a:ad:67:67:10:e8:31:31:1f:54:e5:17:
         97:b5:93:ee:72:a0:66:ba:b4:00:16:3d:c6:f1:2a:c7:89:73:
         ce:7f:de:d4:47:c2:7c:cc:17:48:e0:c4:9e:69:21:d7:ee:9a:
         fe:12:78:76:96:6f:ec:4d:6e:36:b0:0a:4c:60:ea:36:43:ed:
         84:98:ee:41:29:1b:42:09:cb:35:87:a7:21:9b:fa:40:40:04:
         fe:31:2d:18
-----BEGIN CERTIFICATE-----
MIIEgDCCA2igAwIBAgIBBzANBgkqhkiG9w0BAQsFADCBrDELMAkGA1UEBhMCU0Ux
EjAQBgNVBAgMCVN0b2NraG9sbTESMBAGA1UEBwwJU3RvY2tob2xtMQwwCgYDVQQK
DANLVEgxLTArBgNVBAsMJElLMjIwNiBJbnRlcm5ldCBTZWN1cml0eSBhbmQgUHJp
dmFjeTEcMBoGA1UEAwwTY2EtbnAuaWsyMjA2Lmt0aC5zZTEaMBgGCSqGSIb3DQEJ
ARYLY3RzaUBrdGguc2UwHhcNMjIxMjEyMTkwODEyWhcNMjMxMjEyMTkwODEyWjCB
gTELMAkGA1UEBhMCU0UxEjAQBgNVBAgMCVN0b2NraG9sbTESMBAGA1UEBwwJU3Rv
Y2tob2xtMQwwCgYDVQQKDANLVEgxIDAeBgNVBAMMF2NsaWVudC1ucC5pazIyMDYu
a3RoLnNlMRowGAYJKoZIhvcNAQkBFgtjdHNpQGt0aC5zZTCCASIwDQYJKoZIhvcN
AQEBBQADggEPADCCAQoCggEBAMAhvDXby3CzIp7blufdY4TfTS73A8WqvLo51/6D
G+PRnqvMivKl8vT5K4CaRabtUL4A0ZGL6bhlV15uZZ4+sDlDC8fgPm6sGaXku6+H
tC3iptc7eCpMDRs10LfJh0wOSz1pdks5A5yz/a5YsgRT7VXgnwZs5cg+LkZhTyOL
QubEDTlxaB2YyQu6onsoyurUVSUMx0Yq30rWXeYDf9r+EcgVp0AKs5Vx4S9iG7t6
Cv31T4JsBEVmKJd1ECGEeZLSwyheyUgNBoyyUoQlwC3D/+wM5Zs3H/74Oo4eG8Jn
mFj+UsJ6WAzA/+9N97nnX6vS0/ter/9pjlxe/jBz1DgeVisCAwEAAaOB1TCB0jAd
BgNVHQ4EFgQUWrcdsqEin7Q704AVMCmr3Hk3kcUwHwYDVR0jBBgwFoAUMqMZM6Vt
u2I7IFWDM9U+BgfZPMswCQYDVR0TBAIwADALBgNVHQ8EBAMCBaAwSgYDVR0RBEMw
QYILZXhhbXBsZS5jb22CD3d3dy5leGFtcGxlLmNvbYIQbWFpbC5leGFtcGxlLmNv
bYIPZnRwLmV4YW1wbGUuY29tMCwGCWCGSAGG+EIBDQQfFh1PcGVuU1NMIEdlbmVy
YXRlZCBDZXJ0aWZpY2F0ZTANBgkqhkiG9w0BAQsFAAOCAQEAWsSm00WG+YUMU5JJ
ht/s0LAmL0ZAmCWRj6lvftwQlQvfN4ywMByjwBeQsYe8BSe37sqSsR1EydGoG83U
W08dhuMfp6NvLtFcMIBohNgFCW7Beqa+VDunkco2+5/Et9n86JLI52gcA2RUcXMn
vAcTExn5I2D9XZDFn3ceC5d2Hls3oZeUzS4V10dKw6YXYBqAvqjcInQ3yIK+jtI7
fXS/T7P2CO4ui6gxaq1nZxDoMTEfVOUXl7WT7nKgZrq0ABY9xvEqx4lzzn/e1EfC
fMwXSODEnmkh1+6a/hJ4dpZv7E1uNrAKTGDqNkPthJjuQSkbQgnLNYenIZv6QEAE
/jEtGA==
-----END CERTIFICATE-----
