Certificate:
    Data:
        Version: 3 (0x2)
        Serial Number: 5 (0x5)
        Signature Algorithm: sha256WithRSAEncryption
        Issuer: C=SE, ST=Stockholm, L=Stockholm, O=KTH, OU=IK2206 Internet Security and Privacy, CN=ca-np.ik2206.kth.se/emailAddress=ctsi@kth.se
        Validity
            Not Before: Dec 12 18:57:37 2022 GMT
            Not After : Dec 12 18:57:37 2023 GMT
        Subject: C=SE, ST=Stockholm, L=Stockholm, O=KTH, CN=Christodoulos Tsialamanis ctsi@kth.se | Client_Cert/emailAddress=ctsi@kth.se
        Subject Public Key Info:
            Public Key Algorithm: rsaEncryption
                RSA Public-Key: (2048 bit)
                Modulus:
                    00:cf:ac:ff:bc:53:c2:0b:52:00:9a:ad:eb:15:d3:
                    87:2c:90:fe:87:8f:f2:1e:83:f7:52:50:ae:ed:2d:
                    20:1a:b6:af:5d:98:5a:5d:3f:de:fa:46:d0:21:9c:
                    4d:7a:8d:69:49:60:03:b0:9e:29:2b:46:38:8a:49:
                    8b:bc:d1:d6:fe:68:ed:ed:f0:de:4d:6a:45:77:18:
                    cb:0e:e3:97:61:39:5a:2f:71:73:bc:f0:9d:70:71:
                    0d:fc:e0:b8:e2:06:18:2b:f8:04:7a:5f:84:52:67:
                    f2:f6:06:ab:c8:25:97:9a:dd:aa:bf:68:5d:7a:b7:
                    f9:79:9b:9c:0a:e6:04:e3:36:d5:af:90:9a:04:f7:
                    79:67:a4:76:d3:95:0a:e7:6e:c2:34:a3:61:1e:ef:
                    5b:13:18:3d:fe:05:59:5d:44:2d:85:86:bc:1a:8e:
                    2c:02:13:b1:20:54:d2:49:1d:ea:72:93:04:92:82:
                    ab:0b:c6:3c:ad:81:ef:c7:2a:3c:37:d7:33:0a:78:
                    6a:0d:fa:78:42:56:11:4c:c5:95:6f:75:02:ff:d5:
                    35:e7:31:a7:e5:7c:5f:9b:0a:50:f4:cc:9b:8c:e3:
                    12:c2:c3:df:6d:e0:fe:68:22:1a:d5:ff:bc:26:ad:
                    9e:99:24:4e:24:45:7a:dc:e4:db:6f:9b:9f:63:50:
                    36:85
                Exponent: 65537 (0x10001)
        X509v3 extensions:
            X509v3 Subject Key Identifier: 
                67:23:A8:5E:0C:17:85:9D:2F:24:6A:2C:9F:14:89:61:CE:00:5A:B2
            X509v3 Authority Key Identifier: 
                keyid:42:5B:97:C3:57:9C:D6:F0:52:A3:EE:48:0C:CB:59:63:CB:E1:72:94

            X509v3 Basic Constraints: 
                CA:FALSE
            X509v3 Key Usage: 
                Digital Signature, Key Encipherment
            X509v3 Subject Alternative Name: 
                DNS:example.com, DNS:www.example.com, DNS:mail.example.com, DNS:ftp.example.com
            Netscape Comment: 
                OpenSSL Generated Certificate
    Signature Algorithm: sha256WithRSAEncryption
         55:4b:75:cd:78:6e:f8:c8:57:d8:d5:09:94:67:3c:b4:e2:13:
         87:2e:39:ab:c6:be:60:62:03:b8:e9:4e:5f:02:4f:3c:3b:b7:
         15:90:71:75:b6:63:40:7d:c1:51:68:e7:bc:e7:d3:2a:b4:a5:
         5f:c4:8e:fa:5e:c6:50:d8:2e:06:6f:07:a8:18:d1:3d:84:5c:
         ed:25:7e:1a:06:8f:71:bb:d9:e8:fd:ff:30:f6:b5:21:a1:54:
         be:1b:5c:c9:ca:b4:a7:bc:40:fb:85:49:e5:44:97:3f:32:c4:
         86:5f:d9:ad:cd:95:2a:a7:00:d8:6e:8f:ce:e3:97:73:bf:d4:
         88:b6:d1:cd:ea:f7:32:be:96:15:ba:96:a4:c8:7f:24:28:d2:
         66:ec:66:c8:2f:9d:a4:88:4c:a0:30:dc:9e:3c:73:3e:7f:b8:
         90:ac:9b:67:96:dd:13:45:79:98:8e:1b:3e:b1:1b:9c:ea:75:
         04:53:fd:de:8e:07:6e:47:69:a3:bd:96:d4:a8:4c:04:fb:e2:
         8c:c9:5e:b7:29:4d:4d:5d:7e:45:4d:96:d8:ae:41:f8:26:b0:
         c6:eb:11:6f:40:a5:fa:56:92:e6:58:c2:6a:9d:91:55:b9:8b:
         a0:26:22:b7:2b:c9:b5:97:cc:43:9d:b6:3d:c4:77:8c:51:67:
         1e:5b:aa:ab
-----BEGIN CERTIFICATE-----
MIIEnDCCA4SgAwIBAgIBBTANBgkqhkiG9w0BAQsFADCBrDELMAkGA1UEBhMCU0Ux
EjAQBgNVBAgMCVN0b2NraG9sbTESMBAGA1UEBwwJU3RvY2tob2xtMQwwCgYDVQQK
DANLVEgxLTArBgNVBAsMJElLMjIwNiBJbnRlcm5ldCBTZWN1cml0eSBhbmQgUHJp
dmFjeTEcMBoGA1UEAwwTY2EtbnAuaWsyMjA2Lmt0aC5zZTEaMBgGCSqGSIb3DQEJ
ARYLY3RzaUBrdGguc2UwHhcNMjIxMjEyMTg1NzM3WhcNMjMxMjEyMTg1NzM3WjCB
nTELMAkGA1UEBhMCU0UxEjAQBgNVBAgMCVN0b2NraG9sbTESMBAGA1UEBwwJU3Rv
Y2tob2xtMQwwCgYDVQQKDANLVEgxPDA6BgNVBAMMM0NocmlzdG9kb3Vsb3MgVHNp
YWxhbWFuaXMgY3RzaUBrdGguc2UgfCBDbGllbnRfQ2VydDEaMBgGCSqGSIb3DQEJ
ARYLY3RzaUBrdGguc2UwggEiMA0GCSqGSIb3DQEBAQUAA4IBDwAwggEKAoIBAQDP
rP+8U8ILUgCaresV04cskP6Hj/Ieg/dSUK7tLSAatq9dmFpdP976RtAhnE16jWlJ
YAOwnikrRjiKSYu80db+aO3t8N5NakV3GMsO45dhOVovcXO88J1wcQ384LjiBhgr
+AR6X4RSZ/L2BqvIJZea3aq/aF16t/l5m5wK5gTjNtWvkJoE93lnpHbTlQrnbsI0
o2Ee71sTGD3+BVldRC2FhrwajiwCE7EgVNJJHepykwSSgqsLxjytge/HKjw31zMK
eGoN+nhCVhFMxZVvdQL/1TXnMaflfF+bClD0zJuM4xLCw99t4P5oIhrV/7wmrZ6Z
JE4kRXrc5Ntvm59jUDaFAgMBAAGjgdUwgdIwHQYDVR0OBBYEFGcjqF4MF4WdLyRq
LJ8UiWHOAFqyMB8GA1UdIwQYMBaAFEJbl8NXnNbwUqPuSAzLWWPL4XKUMAkGA1Ud
EwQCMAAwCwYDVR0PBAQDAgWgMEoGA1UdEQRDMEGCC2V4YW1wbGUuY29tgg93d3cu
ZXhhbXBsZS5jb22CEG1haWwuZXhhbXBsZS5jb22CD2Z0cC5leGFtcGxlLmNvbTAs
BglghkgBhvhCAQ0EHxYdT3BlblNTTCBHZW5lcmF0ZWQgQ2VydGlmaWNhdGUwDQYJ
KoZIhvcNAQELBQADggEBAFVLdc14bvjIV9jVCZRnPLTiE4cuOavGvmBiA7jpTl8C
Tzw7txWQcXW2Y0B9wVFo57zn0yq0pV/EjvpexlDYLgZvB6gY0T2EXO0lfhoGj3G7
2ej9/zD2tSGhVL4bXMnKtKe8QPuFSeVElz8yxIZf2a3NlSqnANhuj87jl3O/1Ii2
0c3q9zK+lhW6lqTIfyQo0mbsZsgvnaSITKAw3J48cz5/uJCsm2eW3RNFeZiOGz6x
G5zqdQRT/d6OB25HaaO9ltSoTAT74ozJXrcpTU1dfkVNltiuQfgmsMbrEW9ApfpW
kuZYwmqdkVW5i6AmIrcrybWXzEOdtj3Ed4xRZx5bqqs=
-----END CERTIFICATE-----
