Certificate:
    Data:
        Version: 3 (0x2)
        Serial Number: 3 (0x3)
        Signature Algorithm: sha256WithRSAEncryption
        Issuer: C=SE, ST=Stockholm, L=Stockholm, O=KTH, OU=IK2206 Internet Security and Privacy, CN=ca-np.ik2206.kth.se/emailAddress=ctsi@kth.se
        Validity
            Not Before: Dec 11 17:47:00 2022 GMT
            Not After : Dec 11 17:47:00 2023 GMT
        Subject: C=SE, ST=Stockholm, L=Stockholm, O=KTH, CN=client-np.ik2206.kth.se
        Subject Public Key Info:
            Public Key Algorithm: rsaEncryption
                RSA Public-Key: (2048 bit)
                Modulus:
                    00:cc:cd:bd:90:42:97:f0:ac:29:e3:b6:76:5e:9e:
                    36:d5:e1:cc:2a:66:d8:75:84:34:60:79:d4:77:58:
                    c4:59:38:e5:10:7f:b0:49:7a:1e:9a:75:15:c8:d0:
                    f7:f3:17:fb:ba:5d:31:27:c9:7d:14:e3:9f:1f:87:
                    a1:c9:76:e1:55:2a:b2:6a:22:f2:9e:0e:cc:fc:2c:
                    7a:6d:ac:a2:f2:3c:f2:ad:28:4e:f4:1a:9a:3d:c0:
                    ca:d3:5e:2a:35:71:fd:42:82:df:0d:1f:ed:6c:e6:
                    e1:d5:f0:d0:11:6e:46:a0:85:38:8d:41:e0:cb:66:
                    84:46:7a:8c:3a:58:fc:00:60:d8:b6:d4:fb:52:af:
                    ee:22:c0:de:f4:50:3d:1b:af:f6:b5:28:e6:4d:d4:
                    3b:0f:ca:2b:21:e0:24:20:fc:13:88:f5:e6:b4:a0:
                    df:05:20:d6:af:73:b6:20:24:00:cb:f5:8b:5f:c0:
                    6d:a9:3d:61:c8:05:3c:72:9c:0a:7d:c8:78:f2:9c:
                    36:69:a6:45:d3:ad:af:dd:e4:25:74:c6:53:16:95:
                    47:8e:15:b2:e2:89:3b:ce:50:17:4e:09:f3:e1:cb:
                    85:b9:f4:d0:33:95:4b:fb:e1:15:d9:60:78:03:b9:
                    f4:fd:78:d3:87:4c:a7:4c:0b:82:e4:ab:bd:ef:02:
                    7f:4d
                Exponent: 65537 (0x10001)
        X509v3 extensions:
            X509v3 Subject Key Identifier: 
                29:8F:2A:66:73:41:4C:93:A9:49:F8:2F:38:8E:6E:98:A8:2A:A4:00
            X509v3 Authority Key Identifier: 
                keyid:49:7E:1A:60:9B:C7:7C:F0:92:8C:4F:C7:5B:EE:F4:28:14:C9:36:AE

            X509v3 Basic Constraints: 
                CA:FALSE
            X509v3 Key Usage: 
                Digital Signature, Key Encipherment
            X509v3 Subject Alternative Name: 
                DNS:example.com, DNS:www.example.com, DNS:mail.example.com, DNS:ftp.example.com
            Netscape Comment: 
                OpenSSL Generated Certificate
    Signature Algorithm: sha256WithRSAEncryption
         61:4c:9a:36:52:38:36:66:5d:fe:98:70:7b:10:f2:47:a5:61:
         8f:7d:b6:3a:43:bf:43:86:44:c9:b0:3a:37:03:73:96:9e:3b:
         8d:68:f7:2a:f3:d4:7b:c1:27:7d:03:c4:3e:5e:65:3e:69:42:
         50:14:e4:25:de:5e:29:a0:55:84:28:d6:b2:02:14:5a:46:e8:
         15:48:cf:9a:87:11:f9:37:48:d7:f4:de:1d:81:91:90:e7:06:
         2a:a7:c6:55:1d:25:b5:0c:86:1e:12:2d:2a:f1:23:f9:31:eb:
         7a:6d:39:70:dc:47:e6:39:4b:7f:56:c7:56:9e:a6:36:90:4e:
         97:58:59:c2:79:3a:50:05:1b:c7:fc:59:1b:05:05:df:8b:9e:
         ea:4a:a1:14:66:46:56:ca:86:b6:34:c9:7a:61:3d:d9:e6:95:
         6c:3e:a5:2d:e8:07:0f:e2:11:58:6d:34:34:e1:44:ab:d8:c9:
         c6:93:97:cb:83:65:97:ca:a6:8a:5c:3c:5b:89:33:6f:d3:25:
         49:77:e5:1f:bf:0e:f2:f4:3f:e3:6b:ef:f9:b3:37:3d:73:42:
         a6:0e:9e:63:db:c9:58:a1:35:a8:d0:70:45:3e:3d:46:58:c8:
         9c:34:6d:4d:82:3c:5b:e9:b0:99:22:97:b6:ac:86:fd:b6:8b:
         10:77:27:4d
-----BEGIN CERTIFICATE-----
MIIEYzCCA0ugAwIBAgIBAzANBgkqhkiG9w0BAQsFADCBrDELMAkGA1UEBhMCU0Ux
EjAQBgNVBAgMCVN0b2NraG9sbTESMBAGA1UEBwwJU3RvY2tob2xtMQwwCgYDVQQK
DANLVEgxLTArBgNVBAsMJElLMjIwNiBJbnRlcm5ldCBTZWN1cml0eSBhbmQgUHJp
dmFjeTEcMBoGA1UEAwwTY2EtbnAuaWsyMjA2Lmt0aC5zZTEaMBgGCSqGSIb3DQEJ
ARYLY3RzaUBrdGguc2UwHhcNMjIxMjExMTc0NzAwWhcNMjMxMjExMTc0NzAwWjBl
MQswCQYDVQQGEwJTRTESMBAGA1UECAwJU3RvY2tob2xtMRIwEAYDVQQHDAlTdG9j
a2hvbG0xDDAKBgNVBAoMA0tUSDEgMB4GA1UEAwwXY2xpZW50LW5wLmlrMjIwNi5r
dGguc2UwggEiMA0GCSqGSIb3DQEBAQUAA4IBDwAwggEKAoIBAQDMzb2QQpfwrCnj
tnZenjbV4cwqZth1hDRgedR3WMRZOOUQf7BJeh6adRXI0PfzF/u6XTEnyX0U458f
h6HJduFVKrJqIvKeDsz8LHptrKLyPPKtKE70Gpo9wMrTXio1cf1Cgt8NH+1s5uHV
8NARbkaghTiNQeDLZoRGeow6WPwAYNi21PtSr+4iwN70UD0br/a1KOZN1DsPyish
4CQg/BOI9ea0oN8FINavc7YgJADL9YtfwG2pPWHIBTxynAp9yHjynDZppkXTra/d
5CV0xlMWlUeOFbLiiTvOUBdOCfPhy4W59NAzlUv74RXZYHgDufT9eNOHTKdMC4Lk
q73vAn9NAgMBAAGjgdUwgdIwHQYDVR0OBBYEFCmPKmZzQUyTqUn4LziObpioKqQA
MB8GA1UdIwQYMBaAFEl+GmCbx3zwkoxPx1vu9CgUyTauMAkGA1UdEwQCMAAwCwYD
VR0PBAQDAgWgMEoGA1UdEQRDMEGCC2V4YW1wbGUuY29tgg93d3cuZXhhbXBsZS5j
b22CEG1haWwuZXhhbXBsZS5jb22CD2Z0cC5leGFtcGxlLmNvbTAsBglghkgBhvhC
AQ0EHxYdT3BlblNTTCBHZW5lcmF0ZWQgQ2VydGlmaWNhdGUwDQYJKoZIhvcNAQEL
BQADggEBAGFMmjZSODZmXf6YcHsQ8kelYY99tjpDv0OGRMmwOjcDc5aeO41o9yrz
1HvBJ30DxD5eZT5pQlAU5CXeXimgVYQo1rICFFpG6BVIz5qHEfk3SNf03h2BkZDn
BiqnxlUdJbUMhh4SLSrxI/kx63ptOXDcR+Y5S39Wx1aepjaQTpdYWcJ5OlAFG8f8
WRsFBd+LnupKoRRmRlbKhrY0yXphPdnmlWw+pS3oBw/iEVhtNDThRKvYycaTl8uD
ZZfKpopcPFuJM2/TJUl35R+/DvL0P+Nr7/mzNz1zQqYOnmPbyVihNajQcEU+PUZY
yJw0bU2CPFvpsJkil7ashv22ixB3J00=
-----END CERTIFICATE-----
