Certificate:
    Data:
        Version: 3 (0x2)
        Serial Number: 4 (0x4)
        Signature Algorithm: sha256WithRSAEncryption
        Issuer: C=SE, ST=Stockholm, L=Stockholm, O=KTH, OU=IK2206 Internet Security and Privacy, CN=ca-np.ik2206.kth.se/emailAddress=ctsi@kth.se
        Validity
            Not Before: Dec 12 18:56:01 2022 GMT
            Not After : Dec 12 18:56:01 2023 GMT
        Subject: C=SE, ST=Stockholm, L=Stockholm, O=KTH, CN=Christodoulos Tsialamanis ctsi@kth.se/emailAddress=ctsi@kth.se
        Subject Public Key Info:
            Public Key Algorithm: rsaEncryption
                RSA Public-Key: (2048 bit)
                Modulus:
                    00:c2:92:4e:05:7a:3c:89:78:56:8c:65:d5:f4:09:
                    dd:4e:77:b0:db:75:ff:12:ea:b4:6d:c8:8a:01:3f:
                    6b:0c:21:8b:ea:bf:48:94:92:f6:b6:00:67:6b:a5:
                    7a:32:95:71:f8:05:97:8a:26:b9:7b:bc:9e:a8:c6:
                    9b:95:2f:11:7d:19:24:a4:e0:cb:3e:66:4a:7a:53:
                    84:02:70:b4:94:b0:34:f8:6f:a3:ac:47:37:05:b5:
                    57:64:0d:2f:f6:1b:15:c3:95:6e:5d:ae:6a:a4:ad:
                    36:cd:b0:0e:ed:cc:70:f0:82:d8:be:cf:34:33:39:
                    e5:a0:d8:46:6e:cb:a2:14:16:fb:bd:c1:62:77:6b:
                    bf:7c:5a:b1:59:8e:5b:5c:39:e0:75:c6:77:12:71:
                    97:03:16:d1:e3:66:af:e7:b3:56:2b:f8:fe:22:b8:
                    c9:ec:27:e8:eb:5b:dc:d4:c3:68:d5:a8:12:ab:76:
                    d6:13:b5:bd:32:37:9c:81:47:60:a6:77:43:ed:42:
                    ee:df:1f:10:80:0a:48:2e:d2:a6:d6:da:18:04:b5:
                    59:b5:61:6c:62:bd:7d:46:2e:9b:c5:9a:72:3c:36:
                    85:93:1d:a1:75:ff:2d:43:7d:33:9d:b4:0b:e0:93:
                    cb:48:a9:34:d9:52:53:bc:da:1d:c9:9b:ae:5b:11:
                    ff:d3
                Exponent: 65537 (0x10001)
        X509v3 extensions:
            X509v3 Subject Key Identifier: 
                CB:6E:9D:FC:49:1B:35:E7:28:87:5B:54:74:8A:E9:F1:8B:25:74:00
            X509v3 Authority Key Identifier: 
                keyid:42:5B:97:C3:57:9C:D6:F0:52:A3:EE:48:0C:CB:59:63:CB:E1:72:94

            X509v3 Basic Constraints: 
                CA:FALSE
            X509v3 Key Usage: 
                Digital Signature, Key Encipherment
            X509v3 Subject Alternative Name: 
                DNS:example.com, DNS:www.example.com, DNS:mail.example.com, DNS:ftp.example.com
            Netscape Comment: 
                OpenSSL Generated Certificate
    Signature Algorithm: sha256WithRSAEncryption
         c4:0c:c0:1a:7d:0e:0b:7a:52:d8:7f:4d:9a:86:2a:6f:1e:55:
         6e:86:30:30:94:e4:c1:fb:59:05:c8:be:ed:64:c3:06:7f:8f:
         8b:ae:2e:d2:42:9f:e8:2c:2f:fa:b4:a3:72:36:77:4f:e7:25:
         0a:b5:0a:94:7c:c9:f5:c2:62:3c:50:c1:35:30:4d:c7:1f:09:
         51:f0:67:90:d6:66:47:8f:02:f6:ea:4e:59:49:f7:14:84:35:
         78:15:99:06:c8:c4:bb:d4:85:6a:6c:08:5d:ae:7a:05:ec:be:
         c6:48:3d:63:55:7c:d4:fe:67:51:a3:58:6f:f1:1f:91:59:70:
         c5:cc:98:d6:05:01:c5:6a:91:ac:d0:9b:92:cc:52:fb:3f:58:
         b8:ce:cd:c3:77:e6:9f:2f:c0:75:ee:bf:3a:41:a7:9c:65:71:
         f0:6c:59:70:75:e0:5f:51:56:7a:da:ef:13:29:54:6f:43:0d:
         4b:21:17:d9:f9:07:24:41:20:fa:36:03:c4:70:cd:a1:5b:d1:
         99:c3:12:9e:4d:77:8e:18:2b:15:f5:fa:30:5c:45:e6:f0:2f:
         b1:43:af:05:c7:18:bb:b2:9e:48:de:4f:89:89:64:aa:83:99:
         a1:10:e6:e9:b2:33:9d:90:4c:1f:10:e7:51:f5:06:a5:42:f0:
         9e:d3:ef:27
-----BEGIN CERTIFICATE-----
MIIEjjCCA3agAwIBAgIBBDANBgkqhkiG9w0BAQsFADCBrDELMAkGA1UEBhMCU0Ux
EjAQBgNVBAgMCVN0b2NraG9sbTESMBAGA1UEBwwJU3RvY2tob2xtMQwwCgYDVQQK
DANLVEgxLTArBgNVBAsMJElLMjIwNiBJbnRlcm5ldCBTZWN1cml0eSBhbmQgUHJp
dmFjeTEcMBoGA1UEAwwTY2EtbnAuaWsyMjA2Lmt0aC5zZTEaMBgGCSqGSIb3DQEJ
ARYLY3RzaUBrdGguc2UwHhcNMjIxMjEyMTg1NjAxWhcNMjMxMjEyMTg1NjAxWjCB
jzELMAkGA1UEBhMCU0UxEjAQBgNVBAgMCVN0b2NraG9sbTESMBAGA1UEBwwJU3Rv
Y2tob2xtMQwwCgYDVQQKDANLVEgxLjAsBgNVBAMMJUNocmlzdG9kb3Vsb3MgVHNp
YWxhbWFuaXMgY3RzaUBrdGguc2UxGjAYBgkqhkiG9w0BCQEWC2N0c2lAa3RoLnNl
MIIBIjANBgkqhkiG9w0BAQEFAAOCAQ8AMIIBCgKCAQEAwpJOBXo8iXhWjGXV9And
Tnew23X/Euq0bciKAT9rDCGL6r9IlJL2tgBna6V6MpVx+AWXiia5e7yeqMablS8R
fRkkpODLPmZKelOEAnC0lLA0+G+jrEc3BbVXZA0v9hsVw5VuXa5qpK02zbAO7cxw
8ILYvs80MznloNhGbsuiFBb7vcFid2u/fFqxWY5bXDngdcZ3EnGXAxbR42av57NW
K/j+IrjJ7Cfo61vc1MNo1agSq3bWE7W9MjecgUdgpndD7ULu3x8QgApILtKm1toY
BLVZtWFsYr19Ri6bxZpyPDaFkx2hdf8tQ30znbQL4JPLSKk02VJTvNodyZuuWxH/
0wIDAQABo4HVMIHSMB0GA1UdDgQWBBTLbp38SRs15yiHW1R0iunxiyV0ADAfBgNV
HSMEGDAWgBRCW5fDV5zW8FKj7kgMy1ljy+FylDAJBgNVHRMEAjAAMAsGA1UdDwQE
AwIFoDBKBgNVHREEQzBBggtleGFtcGxlLmNvbYIPd3d3LmV4YW1wbGUuY29tghBt
YWlsLmV4YW1wbGUuY29tgg9mdHAuZXhhbXBsZS5jb20wLAYJYIZIAYb4QgENBB8W
HU9wZW5TU0wgR2VuZXJhdGVkIENlcnRpZmljYXRlMA0GCSqGSIb3DQEBCwUAA4IB
AQDEDMAafQ4LelLYf02ahipvHlVuhjAwlOTB+1kFyL7tZMMGf4+Lri7SQp/oLC/6
tKNyNndP5yUKtQqUfMn1wmI8UME1ME3HHwlR8GeQ1mZHjwL26k5ZSfcUhDV4FZkG
yMS71IVqbAhdrnoF7L7GSD1jVXzU/mdRo1hv8R+RWXDFzJjWBQHFapGs0JuSzFL7
P1i4zs3Dd+afL8B17r86QaecZXHwbFlwdeBfUVZ62u8TKVRvQw1LIRfZ+QckQSD6
NgPEcM2hW9GZwxKeTXeOGCsV9fowXEXm8C+xQ68Fxxi7sp5I3k+JiWSqg5mhEObp
sjOdkEwfEOdR9QalQvCe0+8n
-----END CERTIFICATE-----
