Certificate:
    Data:
        Version: 3 (0x2)
        Serial Number: 2 (0x2)
        Signature Algorithm: sha256WithRSAEncryption
        Issuer: C=SE, ST=Stockholm, L=Stockholm, O=KTH, OU=IK2206 Internet Security and Privacy, CN=ca-np.ik2206.kth.se/emailAddress=ctsi@kth.se
        Validity
            Not Before: Dec 11 17:46:37 2022 GMT
            Not After : Dec 11 17:46:37 2023 GMT
        Subject: C=SE, ST=Stockholm, L=Stockholm, O=KTH, CN=server-np.ik2206.kth.se
        Subject Public Key Info:
            Public Key Algorithm: rsaEncryption
                RSA Public-Key: (2048 bit)
                Modulus:
                    00:b5:cd:eb:ad:56:f7:85:89:43:7d:4c:e6:ec:89:
                    ed:c7:b9:c1:be:ed:ff:9a:c2:9c:16:6b:80:e7:44:
                    7e:22:84:3b:21:b0:7c:a4:be:ca:0c:9b:54:32:f5:
                    b7:a9:6c:c8:72:f2:9f:9b:04:9d:4b:a0:d4:ac:f5:
                    56:d8:54:33:6a:26:49:c3:fc:14:d0:5e:a4:01:48:
                    fc:3e:1f:3a:0d:d2:25:e1:19:cd:3b:94:4b:64:ce:
                    d9:1e:ea:ce:f5:dd:8e:ad:8e:c2:59:15:3a:6f:7b:
                    1f:0f:60:f3:b3:db:47:31:aa:fb:29:90:83:bc:c3:
                    5c:c5:d8:05:f0:7e:db:a0:64:0d:ba:24:21:81:19:
                    50:b6:54:41:14:94:89:50:c7:6d:07:4e:39:58:d4:
                    7b:19:3d:13:fd:c1:d3:9e:82:73:99:a9:2e:ea:ed:
                    bf:68:46:39:b1:6f:94:bb:93:2f:3a:7f:4b:5f:46:
                    e8:21:34:2a:65:56:d4:6e:e9:23:81:41:86:c1:24:
                    eb:6e:87:55:00:9c:87:d1:1c:e7:c8:fd:b2:82:2c:
                    87:66:cd:eb:43:4b:7b:0d:2b:d3:ac:0e:e8:e9:08:
                    39:bd:7c:de:ea:a5:5e:f2:b0:0c:eb:e2:b7:60:9f:
                    d1:79:2e:33:a4:4d:e8:3a:b4:30:b0:f8:af:26:5c:
                    52:27
                Exponent: 65537 (0x10001)
        X509v3 extensions:
            X509v3 Subject Key Identifier: 
                71:DB:50:99:44:DA:11:A7:DF:10:4F:51:B3:13:A7:FB:4B:39:AD:C6
            X509v3 Authority Key Identifier: 
                keyid:49:7E:1A:60:9B:C7:7C:F0:92:8C:4F:C7:5B:EE:F4:28:14:C9:36:AE

            X509v3 Basic Constraints: 
                CA:FALSE
            X509v3 Key Usage: 
                Digital Signature, Key Encipherment
            X509v3 Subject Alternative Name: 
                DNS:example.com, DNS:www.example.com, DNS:mail.example.com, DNS:ftp.example.com
            Netscape Comment: 
                OpenSSL Generated Certificate
    Signature Algorithm: sha256WithRSAEncryption
         65:98:35:97:98:52:49:27:8b:9f:2e:7f:5e:e2:e6:f5:8e:cf:
         16:63:0b:49:15:88:19:17:7b:0e:61:86:0e:7d:08:5a:35:88:
         df:08:9c:00:cb:7b:ae:57:7c:ff:a6:4f:81:82:a0:dd:86:89:
         cb:9d:df:b4:46:4a:da:e9:04:06:a1:8d:90:88:0c:d2:e9:eb:
         21:19:5d:d1:26:2c:e5:63:96:e5:61:ee:8c:51:83:e7:b2:99:
         cf:a8:a1:3c:bf:31:88:44:18:a5:ba:c0:c4:29:07:d2:13:84:
         21:4f:a5:0e:cf:3e:5c:4d:51:f9:66:47:57:31:00:30:ad:00:
         32:8d:84:b0:17:28:a2:32:74:cf:7a:1c:d0:33:00:fc:b4:c6:
         09:8a:ce:f4:67:a6:e5:ab:9d:54:72:e2:7a:07:05:63:5d:72:
         86:b7:c0:e6:e2:55:6c:86:87:47:f7:c1:24:ee:14:49:19:b2:
         f3:71:cf:0b:d9:fe:80:68:72:cc:d0:13:c8:e5:e8:ea:10:7f:
         a0:36:59:0d:79:1d:a1:7e:84:57:b2:5c:75:9d:25:2f:9e:41:
         8c:6a:91:63:be:49:e5:16:ad:a2:b9:3b:4a:40:d1:d6:30:ac:
         20:24:aa:02:69:71:e7:f1:65:55:79:80:49:80:2a:57:a5:75:
         7a:d1:61:63
-----BEGIN CERTIFICATE-----
MIIEYzCCA0ugAwIBAgIBAjANBgkqhkiG9w0BAQsFADCBrDELMAkGA1UEBhMCU0Ux
EjAQBgNVBAgMCVN0b2NraG9sbTESMBAGA1UEBwwJU3RvY2tob2xtMQwwCgYDVQQK
DANLVEgxLTArBgNVBAsMJElLMjIwNiBJbnRlcm5ldCBTZWN1cml0eSBhbmQgUHJp
dmFjeTEcMBoGA1UEAwwTY2EtbnAuaWsyMjA2Lmt0aC5zZTEaMBgGCSqGSIb3DQEJ
ARYLY3RzaUBrdGguc2UwHhcNMjIxMjExMTc0NjM3WhcNMjMxMjExMTc0NjM3WjBl
MQswCQYDVQQGEwJTRTESMBAGA1UECAwJU3RvY2tob2xtMRIwEAYDVQQHDAlTdG9j
a2hvbG0xDDAKBgNVBAoMA0tUSDEgMB4GA1UEAwwXc2VydmVyLW5wLmlrMjIwNi5r
dGguc2UwggEiMA0GCSqGSIb3DQEBAQUAA4IBDwAwggEKAoIBAQC1zeutVveFiUN9
TObsie3HucG+7f+awpwWa4DnRH4ihDshsHykvsoMm1Qy9bepbMhy8p+bBJ1LoNSs
9VbYVDNqJknD/BTQXqQBSPw+HzoN0iXhGc07lEtkztke6s713Y6tjsJZFTpvex8P
YPOz20cxqvspkIO8w1zF2AXwftugZA26JCGBGVC2VEEUlIlQx20HTjlY1HsZPRP9
wdOegnOZqS7q7b9oRjmxb5S7ky86f0tfRughNCplVtRu6SOBQYbBJOtuh1UAnIfR
HOfI/bKCLIdmzetDS3sNK9OsDujpCDm9fN7qpV7ysAzr4rdgn9F5LjOkTeg6tDCw
+K8mXFInAgMBAAGjgdUwgdIwHQYDVR0OBBYEFHHbUJlE2hGn3xBPUbMTp/tLOa3G
MB8GA1UdIwQYMBaAFEl+GmCbx3zwkoxPx1vu9CgUyTauMAkGA1UdEwQCMAAwCwYD
VR0PBAQDAgWgMEoGA1UdEQRDMEGCC2V4YW1wbGUuY29tgg93d3cuZXhhbXBsZS5j
b22CEG1haWwuZXhhbXBsZS5jb22CD2Z0cC5leGFtcGxlLmNvbTAsBglghkgBhvhC
AQ0EHxYdT3BlblNTTCBHZW5lcmF0ZWQgQ2VydGlmaWNhdGUwDQYJKoZIhvcNAQEL
BQADggEBAGWYNZeYUkkni58uf17i5vWOzxZjC0kViBkXew5hhg59CFo1iN8InADL
e65XfP+mT4GCoN2Gicud37RGStrpBAahjZCIDNLp6yEZXdEmLOVjluVh7oxRg+ey
mc+ooTy/MYhEGKW6wMQpB9IThCFPpQ7PPlxNUflmR1cxADCtADKNhLAXKKIydM96
HNAzAPy0xgmKzvRnpuWrnVRy4noHBWNdcoa3wObiVWyGh0f3wSTuFEkZsvNxzwvZ
/oBocszQE8jl6OoQf6A2WQ15HaF+hFeyXHWdJS+eQYxqkWO+SeUWraK5O0pA0dYw
rCAkqgJpcefxZVV5gEmAKleldXrRYWM=
-----END CERTIFICATE-----
