Certificate:
    Data:
        Version: 3 (0x2)
        Serial Number: 6 (0x6)
        Signature Algorithm: sha256WithRSAEncryption
        Issuer: C=SE, ST=Stockholm, L=Stockholm, O=KTH, OU=IK2206 Internet Security and Privacy, CN=ca-np.ik2206.kth.se/emailAddress=ctsi@kth.se
        Validity
            Not Before: Dec 12 19:07:04 2022 GMT
            Not After : Dec 12 19:07:04 2023 GMT
        Subject: C=SE, ST=Stockholm, L=Stockholm, O=KTH, CN=server-np.ik2206.kth.se/emailAddress=ctsi@kth.se
        Subject Public Key Info:
            Public Key Algorithm: rsaEncryption
                RSA Public-Key: (2048 bit)
                Modulus:
                    00:d4:43:05:45:f8:a7:f4:6d:2c:66:08:59:bc:f5:
                    8e:47:bc:87:90:6e:29:db:4f:de:02:63:8d:d5:50:
                    d8:82:97:50:24:af:b3:dd:28:f7:b6:48:b1:a2:09:
                    34:84:5b:b7:41:a4:bc:7f:fa:9b:5b:2a:d0:c5:98:
                    51:76:b5:27:f3:ba:ee:ce:ca:f3:55:59:6c:1f:ac:
                    f8:45:07:61:00:a9:fc:ca:c8:72:ed:58:0d:e2:e0:
                    24:9d:96:db:76:79:0b:52:e8:74:63:67:b0:00:16:
                    4a:de:11:69:b4:2a:ab:a5:6d:9a:d1:06:35:6c:15:
                    f7:f7:9c:5d:ea:99:e3:ec:aa:90:16:8e:4f:68:35:
                    39:ce:b7:b0:35:2b:67:42:7a:9b:0e:38:f7:eb:2c:
                    b3:2a:e2:56:23:c3:bc:7a:9a:39:4a:5a:b5:90:60:
                    c5:29:a3:de:19:ec:40:c2:c7:d6:02:99:3c:6f:34:
                    82:29:a2:4c:7c:69:bb:d8:40:85:e2:9c:53:55:0a:
                    d2:8e:92:d7:9e:4e:9e:76:64:5f:b0:7c:89:48:27:
                    e0:a8:b4:bc:df:6f:5b:f4:2a:e9:0e:dc:53:e6:bd:
                    4a:71:2a:01:27:d0:cd:6e:4f:74:30:33:93:ed:84:
                    d8:f8:52:23:07:e8:ae:1c:af:df:de:12:a4:48:2f:
                    97:4b
                Exponent: 65537 (0x10001)
        X509v3 extensions:
            X509v3 Subject Key Identifier: 
                F7:8B:48:FC:07:9D:43:D1:F1:69:58:89:D5:36:C0:C8:EA:93:8B:D2
            X509v3 Authority Key Identifier: 
                keyid:32:A3:19:33:A5:6D:BB:62:3B:20:55:83:33:D5:3E:06:07:D9:3C:CB

            X509v3 Basic Constraints: 
                CA:FALSE
            X509v3 Key Usage: 
                Digital Signature, Key Encipherment
            X509v3 Subject Alternative Name: 
                DNS:example.com, DNS:www.example.com, DNS:mail.example.com, DNS:ftp.example.com
            Netscape Comment: 
                OpenSSL Generated Certificate
    Signature Algorithm: sha256WithRSAEncryption
         af:29:3b:50:48:7a:d6:0b:77:b4:c1:1c:2b:83:a3:95:1d:e3:
         0a:11:b1:81:8a:ad:d9:38:2e:47:d7:fc:45:43:87:40:5d:bf:
         d3:4f:fd:fb:e1:b6:c8:db:19:8a:03:54:10:78:61:37:3c:c3:
         82:3f:17:10:a0:6b:9c:51:ba:5f:7d:e5:84:35:12:0f:e7:04:
         c9:34:08:1d:47:04:4c:a1:9c:9d:49:39:e3:0a:32:f4:2d:6d:
         0f:8f:23:7f:33:d5:71:b7:ab:de:3d:ef:6b:18:3e:ce:fc:80:
         23:d2:78:a8:f3:53:e7:4e:87:10:12:04:13:b2:e8:cb:dd:07:
         48:55:bc:aa:81:96:82:5e:47:89:8e:c9:9c:1b:74:e5:43:d1:
         f7:ca:f2:62:cb:2b:5f:8a:66:25:75:ce:91:80:9f:08:ea:84:
         61:3d:f6:fc:c8:2d:7a:c6:cf:78:fa:18:e9:5f:03:69:21:24:
         96:ba:f3:5a:a1:16:c8:67:c2:12:65:c7:54:fa:ba:70:9e:ae:
         c3:3e:6d:0d:ff:ec:dd:14:0d:8a:c0:fb:14:04:7b:31:7f:95:
         4a:bd:eb:b3:d6:41:b8:05:63:d8:7f:19:7a:44:42:32:1f:32:
         27:53:63:1c:59:71:6a:0d:ba:ce:5a:2b:40:de:ae:45:42:c8:
         67:d5:9c:7b
-----BEGIN CERTIFICATE-----
MIIEgDCCA2igAwIBAgIBBjANBgkqhkiG9w0BAQsFADCBrDELMAkGA1UEBhMCU0Ux
EjAQBgNVBAgMCVN0b2NraG9sbTESMBAGA1UEBwwJU3RvY2tob2xtMQwwCgYDVQQK
DANLVEgxLTArBgNVBAsMJElLMjIwNiBJbnRlcm5ldCBTZWN1cml0eSBhbmQgUHJp
dmFjeTEcMBoGA1UEAwwTY2EtbnAuaWsyMjA2Lmt0aC5zZTEaMBgGCSqGSIb3DQEJ
ARYLY3RzaUBrdGguc2UwHhcNMjIxMjEyMTkwNzA0WhcNMjMxMjEyMTkwNzA0WjCB
gTELMAkGA1UEBhMCU0UxEjAQBgNVBAgMCVN0b2NraG9sbTESMBAGA1UEBwwJU3Rv
Y2tob2xtMQwwCgYDVQQKDANLVEgxIDAeBgNVBAMMF3NlcnZlci1ucC5pazIyMDYu
a3RoLnNlMRowGAYJKoZIhvcNAQkBFgtjdHNpQGt0aC5zZTCCASIwDQYJKoZIhvcN
AQEBBQADggEPADCCAQoCggEBANRDBUX4p/RtLGYIWbz1jke8h5BuKdtP3gJjjdVQ
2IKXUCSvs90o97ZIsaIJNIRbt0GkvH/6m1sq0MWYUXa1J/O67s7K81VZbB+s+EUH
YQCp/MrIcu1YDeLgJJ2W23Z5C1LodGNnsAAWSt4RabQqq6VtmtEGNWwV9/ecXeqZ
4+yqkBaOT2g1Oc63sDUrZ0J6mw449+sssyriViPDvHqaOUpatZBgxSmj3hnsQMLH
1gKZPG80gimiTHxpu9hAheKcU1UK0o6S155OnnZkX7B8iUgn4Ki0vN9vW/Qq6Q7c
U+a9SnEqASfQzW5PdDAzk+2E2PhSIwforhyv394SpEgvl0sCAwEAAaOB1TCB0jAd
BgNVHQ4EFgQU94tI/AedQ9HxaViJ1TbAyOqTi9IwHwYDVR0jBBgwFoAUMqMZM6Vt
u2I7IFWDM9U+BgfZPMswCQYDVR0TBAIwADALBgNVHQ8EBAMCBaAwSgYDVR0RBEMw
QYILZXhhbXBsZS5jb22CD3d3dy5leGFtcGxlLmNvbYIQbWFpbC5leGFtcGxlLmNv
bYIPZnRwLmV4YW1wbGUuY29tMCwGCWCGSAGG+EIBDQQfFh1PcGVuU1NMIEdlbmVy
YXRlZCBDZXJ0aWZpY2F0ZTANBgkqhkiG9w0BAQsFAAOCAQEAryk7UEh61gt3tMEc
K4OjlR3jChGxgYqt2TguR9f8RUOHQF2/00/9++G2yNsZigNUEHhhNzzDgj8XEKBr
nFG6X33lhDUSD+cEyTQIHUcETKGcnUk54woy9C1tD48jfzPVcber3j3vaxg+zvyA
I9J4qPNT506HEBIEE7Loy90HSFW8qoGWgl5HiY7JnBt05UPR98ryYssrX4pmJXXO
kYCfCOqEYT32/MgtesbPePoY6V8DaSEklrrzWqEWyGfCEmXHVPq6cJ6uwz5tDf/s
3RQNisD7FAR7MX+VSr3rs9ZBuAVj2H8ZekRCMh8yJ1NjHFlxag26zlorQN6uRULI
Z9Wcew==
-----END CERTIFICATE-----
